target datalayout = "e-m:e-p270:32:32-p271:32:32-p272:64:64-i64:64-i128:128-f80:128-n8:16:32:64-S128"
target triple = "x86_64-pc-linux-gnu"

%struct.G722Band = type { i16, i32, [2 x i8], i16, [2 x i16], [6 x i32], [6 x i16], i16, i16 }

@ff_g722_low_inv_quant4 = constant [16 x i16] [i16 0, i16 -2557, i16 -1612, i16 -1121, i16 -786, i16 -530, i16 -323, i16 -150, i16 2557, i16 1612, i16 1121, i16 786, i16 530, i16 323, i16 150, i16 0], align 16
@low_log_factor_step = internal constant [16 x i16] [i16 -60, i16 3042, i16 1198, i16 538, i16 334, i16 172, i16 58, i16 -30, i16 3042, i16 1198, i16 538, i16 334, i16 172, i16 58, i16 -30, i16 -60], align 16

; Function Attrs: inlinehint nounwind uwtable
define internal i32 @linear_scale_factor(i32 noundef %0) #2 {
  %2 = alloca i32, align 4
  %3 = alloca i32, align 4
  %4 = alloca i32, align 4
  store i32 %0, ptr %2, align 4, !tbaa !9
  call void @llvm.lifetime.start.p0(i64 4, ptr %3) #5
  %5 = load i32, ptr %2, align 4, !tbaa !9
  %6 = ashr i32 %5, 6
  %7 = and i32 %6, 31
  %8 = sext i32 %7 to i64
  %9 = getelementptr inbounds [32 x i16], ptr @inv_log2_table, i64 0, i64 %8
  %10 = load i16, ptr %9, align 2, !tbaa !14
  %11 = sext i16 %10 to i32
  store i32 %11, ptr %3, align 4, !tbaa !9
  call void @llvm.lifetime.start.p0(i64 4, ptr %4) #5
  %12 = load i32, ptr %2, align 4, !tbaa !9
  %13 = ashr i32 %12, 11
  store i32 %13, ptr %4, align 4, !tbaa !9
  %14 = load i32, ptr %4, align 4, !tbaa !9
  %15 = icmp slt i32 %14, 0
  br i1 %15, label %16, label %21

16:                                               ; preds = %1
  %17 = load i32, ptr %3, align 4, !tbaa !9
  %18 = load i32, ptr %4, align 4, !tbaa !9
  %19 = sub nsw i32 0, %18
  %20 = ashr i32 %17, %19
  br label %25

21:                                               ; preds = %1
  %22 = load i32, ptr %3, align 4, !tbaa !9
  %23 = load i32, ptr %4, align 4, !tbaa !9
  %24 = shl i32 %22, %23
  br label %25

25:                                               ; preds = %21, %16
  %26 = phi i32 [ %20, %16 ], [ %24, %21 ]
  call void @llvm.lifetime.end.p0(i64 4, ptr %4) #5
  call void @llvm.lifetime.end.p0(i64 4, ptr %3) #5
  ret i32 %26
}

; Function Attrs: alwaysinline nounwind willreturn memory(none) uwtable
define internal i32 @av_clip_c(i32 noundef %0, i32 noundef %1, i32 noundef %2) #1 {
  %4 = alloca i32, align 4
  %5 = alloca i32, align 4
  %6 = alloca i32, align 4
  %7 = alloca i32, align 4
  store i32 %0, ptr %5, align 4, !tbaa !9
  store i32 %1, ptr %6, align 4, !tbaa !9
  store i32 %2, ptr %7, align 4, !tbaa !9
  %8 = load i32, ptr %5, align 4, !tbaa !9
  %9 = load i32, ptr %6, align 4, !tbaa !9
  %10 = icmp slt i32 %8, %9
  br i1 %10, label %11, label %13

11:                                               ; preds = %3
  %12 = load i32, ptr %6, align 4, !tbaa !9
  store i32 %12, ptr %4, align 4
  br label %21

13:                                               ; preds = %3
  %14 = load i32, ptr %5, align 4, !tbaa !9
  %15 = load i32, ptr %7, align 4, !tbaa !9
  %16 = icmp sgt i32 %14, %15
  br i1 %16, label %17, label %19

17:                                               ; preds = %13
  %18 = load i32, ptr %7, align 4, !tbaa !9
  store i32 %18, ptr %4, align 4
  br label %21

19:                                               ; preds = %13
  %20 = load i32, ptr %5, align 4, !tbaa !9
  store i32 %20, ptr %4, align 4
  br label %21

21:                                               ; preds = %19, %17, %11
  %22 = load i32, ptr %4, align 4
  ret i32 %22
}

; Function Attrs: nounwind uwtable
define void @ff_g722_update_low_predictor(ptr noundef %0, i32 noundef %1) #0 {
  %3 = alloca ptr, align 8
  %4 = alloca i32, align 4
  store ptr %0, ptr %3, align 8, !tbaa !4
  store i32 %1, ptr %4, align 4, !tbaa !9
  %5 = load ptr, ptr %3, align 8, !tbaa !4
  %6 = load ptr, ptr %3, align 8, !tbaa !4
  %7 = getelementptr inbounds nuw %struct.G722Band, ptr %6, i32 0, i32 8
  %8 = load i16, ptr %7, align 2, !tbaa !11
  %9 = sext i16 %8 to i32
  %10 = load i32, ptr %4, align 4, !tbaa !9
  %11 = sext i32 %10 to i64
  %12 = getelementptr inbounds [16 x i16], ptr @ff_g722_low_inv_quant4, i64 0, i64 %11
  %13 = load i16, ptr %12, align 2, !tbaa !14
  %14 = sext i16 %13 to i32
  %15 = mul nsw i32 %9, %14
  %16 = ashr i32 %15, 10
  call void @do_adaptive_prediction(ptr noundef %5, i32 noundef %16)
  %17 = load ptr, ptr %3, align 8, !tbaa !4
  %18 = getelementptr inbounds nuw %struct.G722Band, ptr %17, i32 0, i32 7
  %19 = load i16, ptr %18, align 4, !tbaa !15
  %20 = sext i16 %19 to i32
  %21 = mul nsw i32 %20, 127
  %22 = ashr i32 %21, 7
  %23 = load i32, ptr %4, align 4, !tbaa !9
  %24 = sext i32 %23 to i64
  %25 = getelementptr inbounds [16 x i16], ptr @low_log_factor_step, i64 0, i64 %24
  %26 = load i16, ptr %25, align 2, !tbaa !14
  %27 = sext i16 %26 to i32
  %28 = add nsw i32 %22, %27
  %29 = call i32 @av_clip_c(i32 noundef %28, i32 noundef 0, i32 noundef 18432) #4
  %30 = trunc i32 %29 to i16
  %31 = load ptr, ptr %3, align 8, !tbaa !4
  %32 = getelementptr inbounds nuw %struct.G722Band, ptr %31, i32 0, i32 7
  store i16 %30, ptr %32, align 4, !tbaa !15
  %33 = load ptr, ptr %3, align 8, !tbaa !4
  %34 = getelementptr inbounds nuw %struct.G722Band, ptr %33, i32 0, i32 7
  %35 = load i16, ptr %34, align 4, !tbaa !15
  %36 = sext i16 %35 to i32
  %37 = sub nsw i32 %36, 16384
  %38 = call i32 @linear_scale_factor(i32 noundef %37)
  %39 = trunc i32 %38 to i16
  %40 = load ptr, ptr %3, align 8, !tbaa !4
  %41 = getelementptr inbounds nuw %struct.G722Band, ptr %40, i32 0, i32 8
  store i16 %39, ptr %41, align 2, !tbaa !11
  ret void
}