; Function Attrs: mustprogress nofree norecurse nosync nounwind willreturn memory(argmem: readwrite) uwtable
define void @ff_g722_update_low_predictor(ptr noundef captures(none) %0, i32 noundef %1) local_unnamed_addr #0 {
  %3 = getelementptr inbounds nuw i8, ptr %0, i64 54
  %4 = load i16, ptr %3, align 2, !tbaa !4
  %5 = sext i16 %4 to i32
  %6 = sext i32 %1 to i64
  %7 = getelementptr inbounds [16 x i16], ptr @ff_g722_low_inv_quant4, i64 0, i64 %6
  %8 = load i16, ptr %7, align 2, !tbaa !10
  %9 = sext i16 %8 to i32
  %10 = mul nsw i32 %9, %5
  %11 = ashr i32 %10, 10
  tail call fastcc void @do_adaptive_prediction(ptr noundef %0, i32 noundef %11)
  %12 = getelementptr inbounds nuw i8, ptr %0, i64 52
  %13 = load i16, ptr %12, align 4, !tbaa !11
  %14 = sext i16 %13 to i32
  %15 = mul nsw i32 %14, 127
  %16 = ashr i32 %15, 7
  %17 = getelementptr inbounds [16 x i16], ptr @low_log_factor_step, i64 0, i64 %6
  %18 = load i16, ptr %17, align 2, !tbaa !10
  %19 = sext i16 %18 to i32
  %20 = add nsw i32 %16, %19
  %21 = tail call i32 @llvm.smax.i32(i32 %20, i32 0)
  %22 = tail call i32 @llvm.umin.i32(i32 %21, i32 18432)
  %23 = trunc nuw nsw i32 %22 to i16
  store i16 %23, ptr %12, align 4, !tbaa !11
  %24 = add nsw i32 %22, -16384
  %25 = lshr i32 %22, 6
  %26 = and i32 %25, 31
  %27 = zext nneg i32 %26 to i64
  %28 = getelementptr inbounds nuw [32 x i16], ptr @inv_log2_table, i64 0, i64 %27
  %29 = load i16, ptr %28, align 2, !tbaa !10
  %30 = sext i16 %29 to i32
  %31 = ashr i32 %24, 11
  %32 = icmp slt i32 %31, 0
  %33 = sub nsw i32 0, %31
  %34 = ashr i32 %30, %33
  %35 = shl nsw i32 %30, %31
  %36 = select i1 %32, i32 %34, i32 %35
  %37 = trunc i32 %36 to i16
  store i16 %37, ptr %3, align 2, !tbaa !4
  ret void
}